; Function Attrs: nounwind uwtable
define ptr @l_Lean_evalConst___rarg(ptr noundef %0, ptr noundef %1, ptr noundef %2, ptr noundef %3, ptr readnone captures(none) %4, ptr noundef %5) #0 {
  %7 = getelementptr inbounds nuw i8, ptr %0, i64 16
  %8 = load ptr, ptr %7, align 8, !tbaa !10
  %9 = ptrtoint ptr %8 to i64
  %10 = and i64 %9, 1
  %.not = icmp eq i64 %10, 0
  br i1 %.not, label %11, label %lean_inc.exit21

11:                                               ; preds = %6
  %.val.i = load i32, ptr %8, align 4, !tbaa !4
  %12 = icmp sgt i32 %.val.i, 0
  br i1 %12, label %13, label %15, !prof !9

13:                                               ; preds = %11
  %14 = add nuw i32 %.val.i, 1
  store i32 %14, ptr %8, align 4, !tbaa !4
  br label %lean_inc.exit21

15:                                               ; preds = %11
  %.not.i22 = icmp eq i32 %.val.i, 0
  br i1 %.not.i22, label %lean_inc.exit21, label %16

16:                                               ; preds = %15
  tail call void @lean_inc_ref_cold(ptr noundef nonnull %8) #4
  br label %lean_inc.exit21

lean_inc.exit21:                                  ; preds = %16, %15, %13, %6
  %17 = getelementptr inbounds nuw i8, ptr %1, i64 8
  %18 = load ptr, ptr %17, align 8, !tbaa !10
  %19 = ptrtoint ptr %18 to i64
  %20 = and i64 %19, 1
  %.not29 = icmp eq i64 %20, 0
  br i1 %.not29, label %21, label %lean_inc.exit20

21:                                               ; preds = %lean_inc.exit21
  %.val.i23 = load i32, ptr %18, align 4, !tbaa !4
  %22 = icmp sgt i32 %.val.i23, 0
  br i1 %22, label %23, label %25, !prof !9

23:                                               ; preds = %21
  %24 = add nuw i32 %.val.i23, 1
  store i32 %24, ptr %18, align 4, !tbaa !4
  br label %lean_inc.exit20

25:                                               ; preds = %21
  %.not.i24 = icmp eq i32 %.val.i23, 0
  br i1 %.not.i24, label %lean_inc.exit20, label %26

26:                                               ; preds = %25
  tail call void @lean_inc_ref_cold(ptr noundef nonnull %18) #4
  br label %lean_inc.exit20

lean_inc.exit20:                                  ; preds = %26, %25, %23, %lean_inc.exit21
  %27 = ptrtoint ptr %1 to i64
  %28 = and i64 %27, 1
  %.not30 = icmp eq i64 %28, 0
  br i1 %.not30, label %29, label %lean_dec.exit

29:                                               ; preds = %lean_inc.exit20
  %30 = load i32, ptr %1, align 4, !tbaa !4
  %31 = icmp sgt i32 %30, 1
  br i1 %31, label %32, label %34, !prof !9

32:                                               ; preds = %29
  %33 = add nsw i32 %30, -1
  store i32 %33, ptr %1, align 4, !tbaa !4
  br label %lean_dec.exit

34:                                               ; preds = %29
  %.not.i = icmp eq i32 %30, 0
  br i1 %.not.i, label %lean_dec.exit, label %35

35:                                               ; preds = %34
  tail call void @lean_dec_ref_cold(ptr noundef nonnull %1) #4
  br label %lean_dec.exit

lean_dec.exit:                                    ; preds = %35, %34, %32, %lean_inc.exit20
  br i1 %.not, label %36, label %lean_inc.exit

36:                                               ; preds = %lean_dec.exit
  %.val.i26 = load i32, ptr %8, align 4, !tbaa !4
  %37 = icmp sgt i32 %.val.i26, 0
  br i1 %37, label %38, label %40, !prof !9

38:                                               ; preds = %36
  %39 = add nuw i32 %.val.i26, 1
  store i32 %39, ptr %8, align 4, !tbaa !4
  br label %lean_inc.exit

40:                                               ; preds = %36
  %.not.i27 = icmp eq i32 %.val.i26, 0
  br i1 %.not.i27, label %lean_inc.exit, label %41

41:                                               ; preds = %40
  tail call void @lean_inc_ref_cold(ptr noundef nonnull %8) #4
  br label %lean_inc.exit

lean_inc.exit:                                    ; preds = %41, %40, %38, %lean_dec.exit
  tail call void @lean_inc_heartbeat() #4
  %42 = tail call noalias ptr @mi_malloc_small(i64 noundef 64) #4
  %43 = icmp eq ptr %42, null
  br i1 %43, label %44, label %lean_alloc_closure.exit

44:                                               ; preds = %lean_inc.exit
  tail call void @lean_internal_panic_out_of_memory() #5
  unreachable

lean_alloc_closure.exit:                          ; preds = %lean_inc.exit
  %45 = getelementptr inbounds nuw i8, ptr %42, i64 4
  store i32 1, ptr %42, align 4, !tbaa !4
  store i32 -184549312, ptr %45, align 4
  %46 = getelementptr inbounds nuw i8, ptr %42, i64 8
  store ptr @l_Lean_evalConst___rarg___lambda__2, ptr %46, align 8, !tbaa !10
  %47 = getelementptr inbounds nuw i8, ptr %42, i64 16
  store i16 6, ptr %47, align 8, !tbaa !12
  %48 = getelementptr inbounds nuw i8, ptr %42, i64 18
  store i16 5, ptr %48, align 2, !tbaa !12
  %49 = getelementptr inbounds nuw i8, ptr %42, i64 24
  store ptr %5, ptr %49, align 8, !tbaa !10
  %50 = getelementptr inbounds nuw i8, ptr %42, i64 32
  store ptr %0, ptr %50, align 8, !tbaa !10
  %51 = getelementptr inbounds nuw i8, ptr %42, i64 40
  store ptr %2, ptr %51, align 8, !tbaa !10
  %52 = getelementptr inbounds nuw i8, ptr %42, i64 48
  store ptr %8, ptr %52, align 8, !tbaa !10
  %53 = getelementptr inbounds nuw i8, ptr %42, i64 56
  store ptr %3, ptr %53, align 8, !tbaa !10
  %54 = tail call ptr @lean_apply_4(ptr noundef %8, ptr noundef nonnull inttoptr (i64 1 to ptr), ptr noundef nonnull inttoptr (i64 1 to ptr), ptr noundef %18, ptr noundef nonnull %42) #4
  ret ptr %54
}